; Function Attrs: mustprogress nofree norecurse nosync nounwind willreturn memory(read, inaccessiblemem: none) uwtable
define noundef zeroext i8 @_ZN8proxygen17HTTPCommonHeaders4hashEPKcm(ptr noundef readonly captures(none) %name, i64 noundef %len) local_unnamed_addr #0 align 2 {
entry:
  %0 = add i64 %len, -2
  %or.cond.i = icmp ult i64 %0, 39
  br i1 %or.cond.i, label %if.then.i, label %cond.end

if.then.i:                                        ; preds = %entry
  %conv.i.i = trunc nuw i64 %len to i32
  switch i32 %conv.i.i, label %sw.default.i.i [
    i32 21, label %sw.bb.i.i
    i32 20, label %sw.bb.i.i
    i32 19, label %sw.bb.i.i
    i32 18, label %sw.bb.i.i
    i32 17, label %sw.bb.i.i
    i32 16, label %sw.bb.i.i
    i32 15, label %sw.bb.i.i
    i32 14, label %sw.bb.i.i
    i32 13, label %sw.bb.i.i
    i32 12, label %sw.bb.i.i
    i32 11, label %sw.bb.i.i
    i32 10, label %sw.bb.i.i
    i32 9, label %sw.bb.i.i
    i32 8, label %sw.bb.i.i
    i32 7, label %sw.bb.i.i
    i32 6, label %sw.bb.i.i
    i32 5, label %sw.bb.i.i
    i32 4, label %sw.bb.i.i
    i32 3, label %sw.bb.i.i
    i32 2, label %_ZN8proxygen25HTTPCommonHeadersInternal4hashEPKcm.exit.i
  ]

sw.default.i.i:                                   ; preds = %if.then.i
  %arrayidx.i.i = getelementptr inbounds nuw i8, ptr %name, i64 21
  %1 = load i8, ptr %arrayidx.i.i, align 1
  %idxprom.i.i = zext i8 %1 to i64
  %arrayidx1.i.i = getelementptr inbounds nuw [257 x i8], ptr @_ZZN8proxygen25HTTPCommonHeadersInternal4hashEPKcmE11asso_values, i64 0, i64 %idxprom.i.i
  %2 = load i8, ptr %arrayidx1.i.i, align 1
  %conv2.i.i = zext i8 %2 to i32
  %add.i.i = add nuw nsw i32 %conv2.i.i, %conv.i.i
  br label %sw.bb.i.i

sw.bb.i.i:                                        ; preds = %sw.default.i.i, %if.then.i, %if.then.i, %if.then.i, %if.then.i, %if.then.i, %if.then.i, %if.then.i, %if.then.i, %if.then.i, %if.then.i, %if.then.i, %if.then.i, %if.then.i, %if.then.i, %if.then.i, %if.then.i, %if.then.i, %if.then.i, %if.then.i
  %hval.0.i.i = phi i32 [ %add.i.i, %sw.default.i.i ], [ %conv.i.i, %if.then.i ], [ %conv.i.i, %if.then.i ], [ %conv.i.i, %if.then.i ], [ %conv.i.i, %if.then.i ], [ %conv.i.i, %if.then.i ], [ %conv.i.i, %if.then.i ], [ %conv.i.i, %if.then.i ], [ %conv.i.i, %if.then.i ], [ %conv.i.i, %if.then.i ], [ %conv.i.i, %if.then.i ], [ %conv.i.i, %if.then.i ], [ %conv.i.i, %if.then.i ], [ %conv.i.i, %if.then.i ], [ %conv.i.i, %if.then.i ], [ %conv.i.i, %if.then.i ], [ %conv.i.i, %if.then.i ], [ %conv.i.i, %if.then.i ], [ %conv.i.i, %if.then.i ], [ %conv.i.i, %if.then.i ]
  %arrayidx3.i.i = getelementptr inbounds nuw i8, ptr %name, i64 2
  %3 = load i8, ptr %arrayidx3.i.i, align 1
  %add5.i.i = add i8 %3, 1
  %idxprom7.i.i = zext i8 %add5.i.i to i64
  %arrayidx8.i.i = getelementptr inbounds nuw [257 x i8], ptr @_ZZN8proxygen25HTTPCommonHeadersInternal4hashEPKcmE11asso_values, i64 0, i64 %idxprom7.i.i
  %4 = load i8, ptr %arrayidx8.i.i, align 1
  %conv9.i.i = zext i8 %4 to i32
  %add10.i.i = add nuw nsw i32 %hval.0.i.i, %conv9.i.i
  br label %_ZN8proxygen25HTTPCommonHeadersInternal4hashEPKcm.exit.i

_ZN8proxygen25HTTPCommonHeadersInternal4hashEPKcm.exit.i: ; preds = %sw.bb.i.i, %if.then.i
  %hval.1.i.i = phi i32 [ %add10.i.i, %sw.bb.i.i ], [ %conv.i.i, %if.then.i ]
  %5 = getelementptr i8, ptr %name, i64 %len
  %arrayidx12.i.i = getelementptr i8, ptr %5, i64 -1
  %6 = load i8, ptr %arrayidx12.i.i, align 1
  %idxprom13.i.i = zext i8 %6 to i64
  %arrayidx14.i.i = getelementptr inbounds nuw [257 x i8], ptr @_ZZN8proxygen25HTTPCommonHeadersInternal4hashEPKcmE11asso_values, i64 0, i64 %idxprom13.i.i
  %7 = load i8, ptr %arrayidx14.i.i, align 1
  %conv15.i.i = zext i8 %7 to i32
  %add16.i.i = add nuw nsw i32 %hval.1.i.i, %conv15.i.i
  %cmp2.i = icmp samesign ult i32 %add16.i.i, 116
  br i1 %cmp2.i, label %if.then3.i, label %cond.end

if.then3.i:                                       ; preds = %_ZN8proxygen25HTTPCommonHeadersInternal4hashEPKcm.exit.i
  %idxprom.i = zext nneg i32 %add16.i.i to i64
  %arrayidx.i = getelementptr inbounds nuw [116 x i8], ptr @_ZN8proxygenL6lookupE, i64 0, i64 %idxprom.i
  %8 = load i8, ptr %arrayidx.i, align 1
  %cmp4.i = icmp sgt i8 %8, -1
  br i1 %cmp4.i, label %if.then5.i, label %cond.end

if.then5.i:                                       ; preds = %if.then3.i
  %conv.i = zext nneg i8 %8 to i64
  %arrayidx7.i = getelementptr inbounds nuw [87 x i8], ptr @_ZN8proxygenL11lengthtableE, i64 0, i64 %conv.i
  %9 = load i8, ptr %arrayidx7.i, align 1
  %conv8.i = zext i8 %9 to i64
  %cmp9.i = icmp eq i64 %len, %conv8.i
  br i1 %cmp9.i, label %if.then10.i, label %cond.end

if.then10.i:                                      ; preds = %if.then5.i
  %arrayidx12.i = getelementptr inbounds nuw [87 x %"struct.proxygen::HTTPCommonHeaderName"], ptr @_ZN8proxygenL8wordlistE, i64 0, i64 %conv.i
  %10 = load ptr, ptr %arrayidx12.i, align 16
  %11 = load i8, ptr %name, align 1
  %12 = load i8, ptr %10, align 1
  %xor12.i = xor i8 %12, %11
  %13 = and i8 %xor12.i, -33
  %cmp15.i = icmp eq i8 %13, 0
  br i1 %cmp15.i, label %for.body.i.i, label %cond.end

for.body.i.i:                                     ; preds = %if.then10.i, %if.then.i.i
  %s1.addr.07.i.i = phi ptr [ %incdec.ptr.i.i, %if.then.i.i ], [ %name, %if.then10.i ]
  %n.addr.06.i.i = phi i64 [ %dec.i.i, %if.then.i.i ], [ %len, %if.then10.i ]
  %s2.addr.05.i.i = phi ptr [ %incdec.ptr1.i.i, %if.then.i.i ], [ %10, %if.then10.i ]
  %14 = load i8, ptr %s1.addr.07.i.i, align 1
  %idxprom.i13.i = zext i8 %14 to i64
  %arrayidx.i14.i = getelementptr inbounds nuw [256 x i8], ptr @_ZN8proxygenL14gperf_downcaseE, i64 0, i64 %idxprom.i13.i
  %15 = load i8, ptr %arrayidx.i14.i, align 1
  %16 = load i8, ptr %s2.addr.05.i.i, align 1
  %idxprom2.i.i = zext i8 %16 to i64
  %arrayidx3.i15.i = getelementptr inbounds nuw [256 x i8], ptr @_ZN8proxygenL14gperf_downcaseE, i64 0, i64 %idxprom2.i.i
  %17 = load i8, ptr %arrayidx3.i15.i, align 1
  %cmp5.i.i = icmp eq i8 %15, %17
  br i1 %cmp5.i.i, label %if.then.i.i, label %cond.end

if.then.i.i:                                      ; preds = %for.body.i.i
  %incdec.ptr1.i.i = getelementptr inbounds nuw i8, ptr %s2.addr.05.i.i, i64 1
  %incdec.ptr.i.i = getelementptr inbounds nuw i8, ptr %s1.addr.07.i.i, i64 1
  %dec.i.i = add nsw i64 %n.addr.06.i.i, -1
  %cmp.not.i.i = icmp eq i64 %dec.i.i, 0
  br i1 %cmp.not.i.i, label %cond.false, label %for.body.i.i, !llvm.loop !4

cond.false:                                       ; preds = %if.then.i.i
  %code = getelementptr inbounds nuw i8, ptr %arrayidx12.i, i64 8
  %18 = load i8, ptr %code, align 8
  br label %cond.end

cond.end:                                         ; preds = %for.body.i.i, %entry, %if.then3.i, %if.then10.i, %if.then5.i, %_ZN8proxygen25HTTPCommonHeadersInternal4hashEPKcm.exit.i, %cond.false
  %cond = phi i8 [ %18, %cond.false ], [ 1, %_ZN8proxygen25HTTPCommonHeadersInternal4hashEPKcm.exit.i ], [ 1, %if.then5.i ], [ 1, %if.then10.i ], [ 1, %if.then3.i ], [ 1, %entry ], [ 1, %for.body.i.i ]
  ret i8 %cond
}